#include <math.h>
#include <stdio.h>
#include <stdlib.h>
#include <string.h>

int main()
{
	int i,n,e,j;
	double b=2,c,f,g=0,s[100];
	scanf("%d",&n);
	for(i=0;i<n;i++)
	{
		b=2;
		scanf("%d",&e);
		g=0;
		for(j=0;j<e;j++)
		{
			g=g+b;
			b=1+(1/b);
		}
		s[i]=g;
	}
	for(i=0;i<n;i++)
	{
		printf("%.3lf\n",s[i]);
	}
	return 0;
}